; ModuleID = '38/1168.c'
source_filename = "38/1168.c"
target datalayout = "e-m:e-p270:32:32-p271:32:32-p272:64:64-i64:64-f80:128-n8:16:32:64-S128"
target triple = "x86_64-pc-linux-gnu"

@.str = private unnamed_addr constant [3 x i8] c"%d\00", align 1
@.str.1 = private unnamed_addr constant [4 x i8] c"%lf\00", align 1
@.str.2 = private unnamed_addr constant [7 x i8] c"%.5lf\0A\00", align 1

; Function Attrs: noinline nounwind uwtable
define dso_local i32 @main(i32 %0, i8** %1) #0 {
  %3 = alloca i32, align 4
  %4 = alloca i32, align 4
  %5 = alloca i8**, align 8
  %6 = alloca i32, align 4
  %7 = alloca i32, align 4
  %8 = alloca i32, align 4
  %9 = alloca [100 x i32], align 16
  %10 = alloca [100 x [100 x double]], align 16
  %11 = alloca [100 x double], align 16
  %12 = alloca [100 x double], align 16
  %13 = alloca [100 x double], align 16
  %14 = alloca [100 x double], align 16
  store i32 0, i32* %3, align 4
  store i32 %0, i32* %4, align 4
  store i8** %1, i8*** %5, align 8
  store i32 0, i32* %7, align 4
  store i32 0, i32* %8, align 4
  %15 = call i32 (i8*, ...) @__isoc99_scanf(i8* getelementptr inbounds ([3 x i8], [3 x i8]* @.str, i64 0, i64 0), i32* %6)
  store i32 0, i32* %7, align 4
  br label %16

16:                                               ; preds = %59, %2
  %17 = load i32, i32* %7, align 4
  %18 = load i32, i32* %6, align 4
  %19 = icmp slt i32 %17, %18
  br i1 %19, label %20, label %62

20:                                               ; preds = %16
  %21 = load i32, i32* %7, align 4
  %22 = sext i32 %21 to i64
  %23 = getelementptr inbounds [100 x i32], [100 x i32]* %9, i64 0, i64 %22
  %24 = call i32 (i8*, ...) @__isoc99_scanf(i8* getelementptr inbounds ([3 x i8], [3 x i8]* @.str, i64 0, i64 0), i32* %23)
  store i32 0, i32* %8, align 4
  store i32 0, i32* %8, align 4
  br label %25

25:                                               ; preds = %55, %20
  %26 = load i32, i32* %8, align 4
  %27 = load i32, i32* %7, align 4
  %28 = sext i32 %27 to i64
  %29 = getelementptr inbounds [100 x i32], [100 x i32]* %9, i64 0, i64 %28
  %30 = load i32, i32* %29, align 4
  %31 = icmp slt i32 %26, %30
  br i1 %31, label %32, label %58

32:                                               ; preds = %25
  %33 = load i32, i32* %7, align 4
  %34 = sext i32 %33 to i64
  %35 = getelementptr inbounds [100 x [100 x double]], [100 x [100 x double]]* %10, i64 0, i64 %34
  %36 = load i32, i32* %8, align 4
  %37 = sext i32 %36 to i64
  %38 = getelementptr inbounds [100 x double], [100 x double]* %35, i64 0, i64 %37
  %39 = call i32 (i8*, ...) @__isoc99_scanf(i8* getelementptr inbounds ([4 x i8], [4 x i8]* @.str.1, i64 0, i64 0), double* %38)
  %40 = load i32, i32* %7, align 4
  %41 = sext i32 %40 to i64
  %42 = getelementptr inbounds [100 x double], [100 x double]* %12, i64 0, i64 %41
  %43 = load double, double* %42, align 8
  %44 = load i32, i32* %7, align 4
  %45 = sext i32 %44 to i64
  %46 = getelementptr inbounds [100 x [100 x double]], [100 x [100 x double]]* %10, i64 0, i64 %45
  %47 = load i32, i32* %8, align 4
  %48 = sext i32 %47 to i64
  %49 = getelementptr inbounds [100 x double], [100 x double]* %46, i64 0, i64 %48
  %50 = load double, double* %49, align 8
  %51 = fadd double %43, %50
  %52 = load i32, i32* %7, align 4
  %53 = sext i32 %52 to i64
  %54 = getelementptr inbounds [100 x double], [100 x double]* %12, i64 0, i64 %53
  store double %51, double* %54, align 8
  br label %55

55:                                               ; preds = %32
  %56 = load i32, i32* %8, align 4
  %57 = add nsw i32 %56, 1
  store i32 %57, i32* %8, align 4
  br label %25

58:                                               ; preds = %25
  br label %59

59:                                               ; preds = %58
  %60 = load i32, i32* %7, align 4
  %61 = add nsw i32 %60, 1
  store i32 %61, i32* %7, align 4
  br label %16

62:                                               ; preds = %16
  store i32 0, i32* %7, align 4
  store i32 0, i32* %7, align 4
  br label %63

63:                                               ; preds = %81, %62
  %64 = load i32, i32* %7, align 4
  %65 = load i32, i32* %6, align 4
  %66 = icmp slt i32 %64, %65
  br i1 %66, label %67, label %84

67:                                               ; preds = %63
  %68 = load i32, i32* %7, align 4
  %69 = sext i32 %68 to i64
  %70 = getelementptr inbounds [100 x double], [100 x double]* %12, i64 0, i64 %69
  %71 = load double, double* %70, align 8
  %72 = load i32, i32* %7, align 4
  %73 = sext i32 %72 to i64
  %74 = getelementptr inbounds [100 x i32], [100 x i32]* %9, i64 0, i64 %73
  %75 = load i32, i32* %74, align 4
  %76 = sitofp i32 %75 to double
  %77 = fdiv double %71, %76
  %78 = load i32, i32* %7, align 4
  %79 = sext i32 %78 to i64
  %80 = getelementptr inbounds [100 x double], [100 x double]* %11, i64 0, i64 %79
  store double %77, double* %80, align 8
  br label %81

81:                                               ; preds = %67
  %82 = load i32, i32* %7, align 4
  %83 = add nsw i32 %82, 1
  store i32 %83, i32* %7, align 4
  br label %63

84:                                               ; preds = %63
  store i32 0, i32* %7, align 4
  store i32 0, i32* %7, align 4
  br label %85

85:                                               ; preds = %123, %84
  %86 = load i32, i32* %7, align 4
  %87 = load i32, i32* %6, align 4
  %88 = icmp slt i32 %86, %87
  br i1 %88, label %89, label %126

89:                                               ; preds = %85
  store i32 0, i32* %8, align 4
  store i32 0, i32* %8, align 4
  br label %90

90:                                               ; preds = %119, %89
  %91 = load i32, i32* %8, align 4
  %92 = load i32, i32* %7, align 4
  %93 = sext i32 %92 to i64
  %94 = getelementptr inbounds [100 x i32], [100 x i32]* %9, i64 0, i64 %93
  %95 = load i32, i32* %94, align 4
  %96 = icmp slt i32 %91, %95
  br i1 %96, label %97, label %122

97:                                               ; preds = %90
  %98 = load i32, i32* %7, align 4
  %99 = sext i32 %98 to i64
  %100 = getelementptr inbounds [100 x double], [100 x double]* %13, i64 0, i64 %99
  %101 = load double, double* %100, align 8
  %102 = load i32, i32* %7, align 4
  %103 = sext i32 %102 to i64
  %104 = getelementptr inbounds [100 x [100 x double]], [100 x [100 x double]]* %10, i64 0, i64 %103
  %105 = load i32, i32* %8, align 4
  %106 = sext i32 %105 to i64
  %107 = getelementptr inbounds [100 x double], [100 x double]* %104, i64 0, i64 %106
  %108 = load double, double* %107, align 8
  %109 = load i32, i32* %7, align 4
  %110 = sext i32 %109 to i64
  %111 = getelementptr inbounds [100 x double], [100 x double]* %11, i64 0, i64 %110
  %112 = load double, double* %111, align 8
  %113 = fsub double %108, %112
  %114 = call double @pow(double %113, double 2.000000e+00) #3
  %115 = fadd double %101, %114
  %116 = load i32, i32* %7, align 4
  %117 = sext i32 %116 to i64
  %118 = getelementptr inbounds [100 x double], [100 x double]* %13, i64 0, i64 %117
  store double %115, double* %118, align 8
  br label %119

119:                                              ; preds = %97
  %120 = load i32, i32* %8, align 4
  %121 = add nsw i32 %120, 1
  store i32 %121, i32* %8, align 4
  br label %90

122:                                              ; preds = %90
  br label %123

123:                                              ; preds = %122
  %124 = load i32, i32* %7, align 4
  %125 = add nsw i32 %124, 1
  store i32 %125, i32* %7, align 4
  br label %85

126:                                              ; preds = %85
  store i32 0, i32* %7, align 4
  store i32 0, i32* %7, align 4
  br label %127

127:                                              ; preds = %151, %126
  %128 = load i32, i32* %7, align 4
  %129 = load i32, i32* %6, align 4
  %130 = icmp slt i32 %128, %129
  br i1 %130, label %131, label %154

131:                                              ; preds = %127
  %132 = load i32, i32* %7, align 4
  %133 = sext i32 %132 to i64
  %134 = getelementptr inbounds [100 x double], [100 x double]* %13, i64 0, i64 %133
  %135 = load double, double* %134, align 8
  %136 = load i32, i32* %7, align 4
  %137 = sext i32 %136 to i64
  %138 = getelementptr inbounds [100 x i32], [100 x i32]* %9, i64 0, i64 %137
  %139 = load i32, i32* %138, align 4
  %140 = sitofp i32 %139 to double
  %141 = fdiv double %135, %140
  %142 = call double @pow(double %141, double 5.000000e-01) #3
  %143 = load i32, i32* %7, align 4
  %144 = sext i32 %143 to i64
  %145 = getelementptr inbounds [100 x double], [100 x double]* %14, i64 0, i64 %144
  store double %142, double* %145, align 8
  %146 = load i32, i32* %7, align 4
  %147 = sext i32 %146 to i64
  %148 = getelementptr inbounds [100 x double], [100 x double]* %14, i64 0, i64 %147
  %149 = load double, double* %148, align 8
  %150 = call i32 (i8*, ...) @printf(i8* getelementptr inbounds ([7 x i8], [7 x i8]* @.str.2, i64 0, i64 0), double %149)
  br label %151

151:                                              ; preds = %131
  %152 = load i32, i32* %7, align 4
  %153 = add nsw i32 %152, 1
  store i32 %153, i32* %7, align 4
  br label %127

154:                                              ; preds = %127
  ret i32 0
}

declare dso_local i32 @__isoc99_scanf(i8*, ...) #1

; Function Attrs: nounwind
declare dso_local double @pow(double, double) #2

declare dso_local i32 @printf(i8*, ...) #1


!llvm.module.flags = !{!0}
!llvm.ident = !{!1}

!0 = !{i32 1, !"wchar_size", i32 4}
!1 = !{!"clang version 10.0.0-4ubuntu1 "}
